target datalayout = "e-m:e-p270:32:32-p271:32:32-p272:64:64-i64:64-i128:128-f80:128-n8:16:32:64-S128"
target triple = "x86_64-pc-linux-gnu"

%"class.cv::DummyBufferPoolController" = type { %"class.cv::BufferPoolController" }
%"class.cv::BufferPoolController" = type { ptr }

@_ZZNK2cv12MatAllocator23getBufferPoolControllerEPKcE5dummy = internal global %"class.cv::DummyBufferPoolController" zeroinitializer, align 8
@_ZGVZNK2cv12MatAllocator23getBufferPoolControllerEPKcE5dummy = internal global i64 0, align 8
@__dso_handle = external hidden global i8
@_ZTVN2cv20BufferPoolControllerE = linkonce_odr hidden unnamed_addr constant { [6 x ptr] } { [6 x ptr] [ptr null, ptr @_ZTIN2cv20BufferPoolControllerE, ptr @__cxa_pure_virtual, ptr @__cxa_pure_virtual, ptr @__cxa_pure_virtual, ptr @__cxa_pure_virtual] }, comdat, align 8

; Function Attrs: inlinehint mustprogress nounwind uwtable
define linkonce_odr hidden void @_ZN2cv20BufferPoolControllerC2Ev(ptr noundef nonnull align 8 dereferenceable(8) %0) unnamed_addr #6 comdat align 2 {
  %2 = alloca ptr, align 8
  store ptr %0, ptr %2, align 8, !tbaa !61
  %3 = load ptr, ptr %2, align 8
  store ptr getelementptr inbounds inrange(-16, 32) ({ [6 x ptr] }, ptr @_ZTVN2cv20BufferPoolControllerE, i32 0, i32 0, i32 2), ptr %3, align 8, !tbaa !23
  ret void
}

; Function Attrs: mustprogress nounwind uwtable
define linkonce_odr hidden void @_ZN2cv25DummyBufferPoolControllerC2Ev(ptr noundef nonnull align 8 dereferenceable(8) %0) unnamed_addr #0 comdat align 2 {
  %2 = alloca ptr, align 8
  store ptr %0, ptr %2, align 8, !tbaa !59
  %3 = load ptr, ptr %2, align 8
  call void @_ZN2cv20BufferPoolControllerC2Ev(ptr noundef nonnull align 8 dereferenceable(8) %3) #7
  store ptr getelementptr inbounds inrange(-16, 48) ({ [8 x ptr] }, ptr @_ZTVN2cv25DummyBufferPoolControllerE, i32 0, i32 0, i32 2), ptr %3, align 8, !tbaa !23
  ret void
}

; Function Attrs: mustprogress uwtable
define noundef ptr @_ZNK2cv12MatAllocator23getBufferPoolControllerEPKc(ptr noundef nonnull align 8 dereferenceable(8) %0, ptr noundef %1) unnamed_addr #1 align 2 personality ptr @__gxx_personality_v0 {
  %3 = alloca ptr, align 8
  %4 = alloca ptr, align 8
  %5 = alloca ptr, align 8
  %6 = alloca i32, align 4
  store ptr %0, ptr %3, align 8, !tbaa !3
  store ptr %1, ptr %4, align 8, !tbaa !30
  %7 = load atomic i8, ptr @_ZGVZNK2cv12MatAllocator23getBufferPoolControllerEPKcE5dummy acquire, align 8
  %8 = icmp eq i8 %7, 0
  br i1 %8, label %9, label %15, !prof !58

9:                                                ; preds = %2
  %10 = call i32 @__cxa_guard_acquire(ptr @_ZGVZNK2cv12MatAllocator23getBufferPoolControllerEPKcE5dummy) #7
  %11 = icmp ne i32 %10, 0
  br i1 %11, label %12, label %15

12:                                               ; preds = %9
  invoke void @_ZN2cv25DummyBufferPoolControllerC2Ev(ptr noundef nonnull align 8 dereferenceable(8) @_ZZNK2cv12MatAllocator23getBufferPoolControllerEPKcE5dummy)
          to label %13 unwind label %16

13:                                               ; preds = %12
  %14 = call i32 @__cxa_atexit(ptr @_ZN2cv20BufferPoolControllerD2Ev, ptr @_ZZNK2cv12MatAllocator23getBufferPoolControllerEPKcE5dummy, ptr @__dso_handle) #7
  call void @__cxa_guard_release(ptr @_ZGVZNK2cv12MatAllocator23getBufferPoolControllerEPKcE5dummy) #7
  br label %15

15:                                               ; preds = %13, %9, %2
  ret ptr @_ZZNK2cv12MatAllocator23getBufferPoolControllerEPKcE5dummy

16:                                               ; preds = %12
  %17 = landingpad { ptr, i32 }
          cleanup
  %18 = extractvalue { ptr, i32 } %17, 0
  store ptr %18, ptr %5, align 8
  %19 = extractvalue { ptr, i32 } %17, 1
  store i32 %19, ptr %6, align 4
  call void @__cxa_guard_abort(ptr @_ZGVZNK2cv12MatAllocator23getBufferPoolControllerEPKcE5dummy) #7
  br label %20

20:                                               ; preds = %16
  %21 = load ptr, ptr %5, align 8
  %22 = load i32, ptr %6, align 4
  %23 = insertvalue { ptr, i32 } poison, ptr %21, 0
  %24 = insertvalue { ptr, i32 } %23, i32 %22, 1
  resume { ptr, i32 } %24
}