; Function Attrs: mustprogress nofree nounwind uwtable
define noundef nonnull ptr @_ZNK2cv12MatAllocator23getBufferPoolControllerEPKc(ptr nonnull readnone align 8 captures(none) %0, ptr readnone captures(none) %1) unnamed_addr #7 align 2 personality ptr @__gxx_personality_v0 {
  %3 = load atomic i8, ptr @_ZGVZNK2cv12MatAllocator23getBufferPoolControllerEPKcE5dummy acquire, align 8
  %4 = icmp eq i8 %3, 0
  br i1 %4, label %5, label %8, !prof !47

5:                                                ; preds = %2
  %6 = tail call i32 @__cxa_guard_acquire(ptr nonnull @_ZGVZNK2cv12MatAllocator23getBufferPoolControllerEPKcE5dummy) #24
  %.not = icmp eq i32 %6, 0
  br i1 %.not, label %8, label %7

7:                                                ; preds = %5
  store ptr getelementptr inbounds nuw inrange(-16, 48) (i8, ptr @_ZTVN2cv25DummyBufferPoolControllerE, i64 16), ptr @_ZZNK2cv12MatAllocator23getBufferPoolControllerEPKcE5dummy, align 8, !tbaa !19
  tail call void @__cxa_guard_release(ptr nonnull @_ZGVZNK2cv12MatAllocator23getBufferPoolControllerEPKcE5dummy) #24
  br label %8

8:                                                ; preds = %7, %5, %2
  ret ptr @_ZZNK2cv12MatAllocator23getBufferPoolControllerEPKcE5dummy
}